target datalayout = "e-m:e-p270:32:32-p271:32:32-p272:64:64-i64:64-i128:128-f80:128-n8:16:32:64-S128"
target triple = "x86_64-pc-linux-gnu"

%struct.PaUtilBufferProcessor = type { i64, i64, i32, i32, i32, i32, i64, i32, i32, i32, i32, ptr, ptr, i32, i32, i32, i32, ptr, ptr, i64, i64, ptr, ptr, i64, ptr, ptr, i64, ptr, i64, i32, [2 x i64], [2 x ptr], i32, [2 x i64], [2 x ptr], %struct.PaUtilTriangularDitherGenerator, double, ptr, ptr }
%struct.PaUtilTriangularDitherGenerator = type { i32, i32, i32 }

; Function Attrs: nounwind uwtable
define void @PaUtil_SetOutputFrameCount(ptr noundef %0, i64 noundef %1) #0 {
  %3 = alloca ptr, align 8
  %4 = alloca i64, align 8
  store ptr %0, ptr %3, align 8
  store i64 %1, ptr %4, align 8
  %5 = load i64, ptr %4, align 8
  %6 = icmp eq i64 %5, 0
  br i1 %6, label %7, label %14

7:                                                ; preds = %2
  %8 = load ptr, ptr %3, align 8
  %9 = getelementptr inbounds nuw %struct.PaUtilBufferProcessor, ptr %8, i32 0, i32 1
  %10 = load i64, ptr %9, align 8
  %11 = load ptr, ptr %3, align 8
  %12 = getelementptr inbounds nuw %struct.PaUtilBufferProcessor, ptr %11, i32 0, i32 33
  %13 = getelementptr inbounds [2 x i64], ptr %12, i64 0, i64 0
  store i64 %10, ptr %13, align 8
  br label %19

14:                                               ; preds = %2
  %15 = load i64, ptr %4, align 8
  %16 = load ptr, ptr %3, align 8
  %17 = getelementptr inbounds nuw %struct.PaUtilBufferProcessor, ptr %16, i32 0, i32 33
  %18 = getelementptr inbounds [2 x i64], ptr %17, i64 0, i64 0
  store i64 %15, ptr %18, align 8
  br label %19

19:                                               ; preds = %14, %7
  ret void
}