; Function Attrs: mustprogress nofree norecurse nosync nounwind willreturn memory(argmem: readwrite) uwtable
define void @PaUtil_SetOutputFrameCount(ptr nocapture noundef %0, i64 noundef %1) local_unnamed_addr #5 {
  %3 = icmp eq i64 %1, 0
  br i1 %3, label %4, label %7

4:                                                ; preds = %2
  %5 = getelementptr inbounds nuw i8, ptr %0, i64 8
  %6 = load i64, ptr %5, align 8
  br label %7

7:                                                ; preds = %2, %4
  %.sink = phi i64 [ %6, %4 ], [ %1, %2 ]
  %8 = getelementptr inbounds nuw i8, ptr %0, i64 232
  store i64 %.sink, ptr %8, align 8
  ret void
}